target datalayout = "e-m:e-p270:32:32-p271:32:32-p272:64:64-i64:64-i128:128-f80:128-n8:16:32:64-S128"
target triple = "x86_64-pc-linux-gnu"

%struct._reo_man = type { i32, i32, i32, i32, i32, i32, ptr, ptr, i32, ptr, i32, i32, ptr, ptr, ptr, ptr, i32, i32, i32, i32, i32, i32, double, double, double, ptr, ptr, ptr, ptr, i32, ptr, i32, i32, ptr, i32, i32, i32, ptr, i32, i32, ptr, ptr, i32, i32, i32, i32, i32, i32, i32 }

; Function Attrs: nounwind uwtable
define void @Extra_ReorderSetMinimizationType(ptr noundef %0, i32 noundef %1) #0 {
  %3 = alloca ptr, align 8
  %4 = alloca i32, align 4
  store ptr %0, ptr %3, align 8, !tbaa !7
  store i32 %1, ptr %4, align 4, !tbaa !3
  %5 = load i32, ptr %4, align 4, !tbaa !3
  %6 = icmp eq i32 %5, 0
  br i1 %6, label %7, label %12

7:                                                ; preds = %2
  %8 = load ptr, ptr %3, align 8, !tbaa !7
  %9 = getelementptr inbounds nuw %struct._reo_man, ptr %8, i32 0, i32 0
  store i32 0, ptr %9, align 8, !tbaa !21
  %10 = load ptr, ptr %3, align 8, !tbaa !7
  %11 = getelementptr inbounds nuw %struct._reo_man, ptr %10, i32 0, i32 1
  store i32 0, ptr %11, align 4, !tbaa !10
  br label %31

12:                                               ; preds = %2
  %13 = load i32, ptr %4, align 4, !tbaa !3
  %14 = icmp eq i32 %13, 1
  br i1 %14, label %15, label %20

15:                                               ; preds = %12
  %16 = load ptr, ptr %3, align 8, !tbaa !7
  %17 = getelementptr inbounds nuw %struct._reo_man, ptr %16, i32 0, i32 0
  store i32 1, ptr %17, align 8, !tbaa !21
  %18 = load ptr, ptr %3, align 8, !tbaa !7
  %19 = getelementptr inbounds nuw %struct._reo_man, ptr %18, i32 0, i32 1
  store i32 0, ptr %19, align 4, !tbaa !10
  br label %30

20:                                               ; preds = %12
  %21 = load i32, ptr %4, align 4, !tbaa !3
  %22 = icmp eq i32 %21, 2
  br i1 %22, label %23, label %28

23:                                               ; preds = %20
  %24 = load ptr, ptr %3, align 8, !tbaa !7
  %25 = getelementptr inbounds nuw %struct._reo_man, ptr %24, i32 0, i32 0
  store i32 0, ptr %25, align 8, !tbaa !21
  %26 = load ptr, ptr %3, align 8, !tbaa !7
  %27 = getelementptr inbounds nuw %struct._reo_man, ptr %26, i32 0, i32 1
  store i32 1, ptr %27, align 4, !tbaa !10
  br label %29

28:                                               ; preds = %20
  br label %29

29:                                               ; preds = %28, %23
  br label %30

30:                                               ; preds = %29, %15
  br label %31

31:                                               ; preds = %30, %7
  ret void
}