; Function Attrs: mustprogress nofree norecurse nosync nounwind willreturn memory(argmem: write) uwtable
define void @Extra_ReorderSetMinimizationType(ptr noundef writeonly captures(none) %0, i32 noundef %1) local_unnamed_addr #5 {
  %3 = icmp ult i32 %1, 3
  br i1 %3, label %switch.lookup, label %7

switch.lookup:                                    ; preds = %2
  %4 = zext nneg i32 %1 to i64
  %switch.gep = getelementptr inbounds nuw [3 x i32], ptr @switch.table.Extra_ReorderSetMinimizationType, i64 0, i64 %4
  %switch.load = load i32, ptr %switch.gep, align 4
  %5 = zext nneg i32 %1 to i64
  %switch.gep10 = getelementptr inbounds nuw [3 x i32], ptr @switch.table.Extra_ReorderSetMinimizationType.1, i64 0, i64 %5
  %switch.load11 = load i32, ptr %switch.gep10, align 4
  store i32 %switch.load, ptr %0, align 8, !tbaa !31
  %6 = getelementptr inbounds nuw i8, ptr %0, i64 4
  store i32 %switch.load11, ptr %6, align 4, !tbaa !32
  br label %7

7:                                                ; preds = %2, %switch.lookup
  ret void
}